; Function Attrs: nounwind sspstrong uwtable
define internal range(i64 0, 21) i64 @recursive_eql(i64 noundef %0, i64 noundef %1, i32 noundef %2) #4 {
  %.not = icmp eq i32 %2, 0
  br i1 %.not, label %.preheader, label %.loopexit

.preheader:                                       ; preds = %3
  %4 = inttoptr i64 %0 to ptr
  %5 = getelementptr inbounds nuw i8, ptr %4, i64 16
  %6 = getelementptr inbounds nuw i8, ptr %4, i64 32
  %7 = inttoptr i64 %1 to ptr
  %8 = getelementptr inbounds nuw i8, ptr %7, i64 16
  %9 = getelementptr inbounds nuw i8, ptr %7, i64 32
  br label %10

10:                                               ; preds = %rb_ary_elt.exit21, %.preheader
  %.0 = phi i64 [ %37, %rb_ary_elt.exit21 ], [ 0, %.preheader ]
  %11 = load i64, ptr %4, align 8, !tbaa !7
  %12 = and i64 %11, 8192
  %.not.i = icmp eq i64 %12, 0
  br i1 %.not.i, label %rb_array_len.exit, label %rb_array_len.exit.thread

rb_array_len.exit:                                ; preds = %10
  %13 = load i64, ptr %5, align 8, !tbaa !12
  %14 = icmp slt i64 %.0, %13
  br i1 %14, label %rb_array_len.exit.i, label %.loopexit

rb_array_len.exit.thread:                         ; preds = %10
  %15 = lshr i64 %11, 15
  %16 = and i64 %15, 127
  %17 = icmp samesign ult i64 %.0, %16
  br i1 %17, label %rb_array_len.exit.i, label %.loopexit

rb_array_len.exit.i:                              ; preds = %rb_array_len.exit, %rb_array_len.exit.thread
  %.0.i.i = phi i64 [ %16, %rb_array_len.exit.thread ], [ %13, %rb_array_len.exit ]
  %.not23 = icmp eq i64 %.0.i.i, 0
  br i1 %.not23, label %rb_ary_elt.exit, label %18

18:                                               ; preds = %rb_array_len.exit.i
  br i1 %.not.i, label %19, label %RARRAY_AREF.exit.i

19:                                               ; preds = %18
  %20 = load ptr, ptr %6, align 8, !tbaa !12
  br label %RARRAY_AREF.exit.i

RARRAY_AREF.exit.i:                               ; preds = %18, %19
  %.0.i.i.i = phi ptr [ %20, %19 ], [ %5, %18 ]
  %21 = getelementptr i64, ptr %.0.i.i.i, i64 %.0
  %22 = load i64, ptr %21, align 8, !tbaa !13
  br label %rb_ary_elt.exit

rb_ary_elt.exit:                                  ; preds = %rb_array_len.exit.i, %RARRAY_AREF.exit.i
  %.0.i12 = phi i64 [ %22, %RARRAY_AREF.exit.i ], [ 4, %rb_array_len.exit.i ]
  %23 = load i64, ptr %7, align 8, !tbaa !7
  %24 = and i64 %23, 8192
  %.not.i.i13 = icmp eq i64 %24, 0
  br i1 %.not.i.i13, label %28, label %25

25:                                               ; preds = %rb_ary_elt.exit
  %26 = lshr i64 %23, 15
  %27 = and i64 %26, 127
  br label %rb_array_len.exit.i14

28:                                               ; preds = %rb_ary_elt.exit
  %29 = load i64, ptr %8, align 8, !tbaa !12
  br label %rb_array_len.exit.i14

rb_array_len.exit.i14:                            ; preds = %28, %25
  %.0.i.i15 = phi i64 [ %27, %25 ], [ %29, %28 ]
  %30 = icmp ne i64 %.0.i.i15, 0
  %.not.i16 = icmp sgt i64 %.0.i.i15, %.0
  %or.cond = select i1 %30, i1 %.not.i16, i1 false
  br i1 %or.cond, label %31, label %rb_ary_elt.exit21

31:                                               ; preds = %rb_array_len.exit.i14
  br i1 %.not.i.i13, label %32, label %RARRAY_AREF.exit.i19

32:                                               ; preds = %31
  %33 = load ptr, ptr %9, align 8, !tbaa !12
  br label %RARRAY_AREF.exit.i19

RARRAY_AREF.exit.i19:                             ; preds = %31, %32
  %.0.i.i.i20 = phi ptr [ %33, %32 ], [ %8, %31 ]
  %34 = getelementptr i64, ptr %.0.i.i.i20, i64 %.0
  %35 = load i64, ptr %34, align 8, !tbaa !13
  br label %rb_ary_elt.exit21

rb_ary_elt.exit21:                                ; preds = %rb_array_len.exit.i14, %RARRAY_AREF.exit.i19
  %.0.i18 = phi i64 [ %35, %RARRAY_AREF.exit.i19 ], [ 4, %rb_array_len.exit.i14 ]
  %36 = tail call i32 @rb_eql(i64 noundef %.0.i12, i64 noundef %.0.i18) #24
  %.not10 = icmp eq i32 %36, 0
  %37 = add nuw nsw i64 %.0, 1
  br i1 %.not10, label %.loopexit, label %10, !llvm.loop !202

.loopexit:                                        ; preds = %rb_array_len.exit.thread, %rb_array_len.exit, %rb_ary_elt.exit21, %3
  %.09 = phi i64 [ 20, %3 ], [ 20, %rb_array_len.exit.thread ], [ 20, %rb_array_len.exit ], [ 0, %rb_ary_elt.exit21 ]
  ret i64 %.09
}